target datalayout = "e-m:e-p270:32:32-p271:32:32-p272:64:64-i64:64-i128:128-f80:128-n8:16:32:64-S128"
target triple = "x86_64-pc-linux-gnu"

%struct.AVFormatContext = type { ptr, ptr, ptr, ptr, ptr, i32, i32, ptr, i32, ptr, i32, ptr, ptr, i64, i64, i64, i32, i32, i32, i64, i64, ptr, i32, i32, ptr, i32, i32, i32, i32, ptr, i64, i32, i32, %struct.AVIOInterruptCB, i32, i32, i32, i32, i64, i32, i32, i32, i32, i32, i32, i32, i32, i32, i32, i32, i32, i64, i32, i32, i32, i32, i32, ptr, ptr, ptr, ptr, i32, ptr, ptr, ptr, ptr, i32, ptr, ptr, i64, ptr, ptr, ptr, i64 }
%struct.AVIOInterruptCB = type { ptr, ptr }
%struct.ASFContext = type { i32, i32, i32, i64, i64, i32, i64, i32, i32, i32, i64, i64, i64, i64, i64, i64, i32, [128 x ptr], [128 x %struct.ASFStreamData], i32, i32, i64, i64, i8, i32, i64, i32, i32, i64, i32, i16, i64, i32, i32 }
%struct.ASFStreamData = type { [32 x i8], ptr, %struct.AVRational }
%struct.AVRational = type { i32, i32 }
%struct.AVIOContext = type { ptr, ptr, i32, ptr, ptr, ptr, ptr, ptr, ptr, i64, i32, i32, i32, i32, i32, i64, ptr, ptr, ptr, ptr, i32, i32, ptr, ptr, ptr, i32, ptr, i64, i64 }
%struct.AVStream = type { ptr, i32, i32, ptr, ptr, %struct.AVRational, i64, i64, i64, i32, i32, %struct.AVRational, ptr, %struct.AVRational, %struct.AVPacket, i32, %struct.AVRational, i32 }
%struct.AVPacket = type { ptr, i64, i64, ptr, i32, i32, i32, ptr, i32, i64, i64, ptr, ptr, %struct.AVRational }

@.str.50 = private unnamed_addr constant [121 x i8] c"Number of Packets from File Properties Object is not equal to TotalDatapackets value! num of packets %lu total num %lu.\0A\00", align 1

; Function Attrs: nounwind uwtable
define internal void @align_position(ptr noundef %0, i64 noundef %1, i64 noundef %2) #0 {
  %4 = alloca ptr, align 8
  %5 = alloca i64, align 8
  %6 = alloca i64, align 8
  store ptr %0, ptr %4, align 8, !tbaa !33
  store i64 %1, ptr %5, align 8, !tbaa !47
  store i64 %2, ptr %6, align 8, !tbaa !47
  %7 = load i64, ptr %6, align 8, !tbaa !47
  %8 = load i64, ptr %5, align 8, !tbaa !47
  %9 = sub nsw i64 9223372036854775807, %8
  %10 = icmp ult i64 %7, %9
  br i1 %10, label %11, label %24

11:                                               ; preds = %3
  %12 = load ptr, ptr %4, align 8, !tbaa !33
  %13 = call i64 @avio_tell(ptr noundef %12)
  %14 = load i64, ptr %5, align 8, !tbaa !47
  %15 = load i64, ptr %6, align 8, !tbaa !47
  %16 = add i64 %14, %15
  %17 = icmp ne i64 %13, %16
  br i1 %17, label %18, label %24

18:                                               ; preds = %11
  %19 = load ptr, ptr %4, align 8, !tbaa !33
  %20 = load i64, ptr %5, align 8, !tbaa !47
  %21 = load i64, ptr %6, align 8, !tbaa !47
  %22 = add i64 %20, %21
  %23 = call i64 @avio_seek(ptr noundef %19, i64 noundef %22, i32 noundef 0)
  br label %24

24:                                               ; preds = %18, %11, %3
  ret void
}

; Function Attrs: alwaysinline nounwind uwtable
define internal i64 @avio_tell(ptr noundef %0) #1 {
  %2 = alloca ptr, align 8
  store ptr %0, ptr %2, align 8, !tbaa !33
  %3 = load ptr, ptr %2, align 8, !tbaa !33
  %4 = call i64 @avio_seek(ptr noundef %3, i64 noundef 0, i32 noundef 1)
  ret i64 %4
}

; Function Attrs: nounwind uwtable
define internal i32 @asf_read_data(ptr noundef %0, ptr noundef %1) #0 {
  %3 = alloca ptr, align 8
  %4 = alloca ptr, align 8
  %5 = alloca ptr, align 8
  %6 = alloca ptr, align 8
  %7 = alloca i64, align 8
  %8 = alloca i32, align 4
  store ptr %0, ptr %3, align 8, !tbaa !13
  store ptr %1, ptr %4, align 8, !tbaa !34
  call void @llvm.lifetime.start.p0(i64 8, ptr %5) #10
  %9 = load ptr, ptr %3, align 8, !tbaa !13
  %10 = getelementptr inbounds nuw %struct.AVFormatContext, ptr %9, i32 0, i32 3
  %11 = load ptr, ptr %10, align 8, !tbaa !15
  store ptr %11, ptr %5, align 8, !tbaa !30
  call void @llvm.lifetime.start.p0(i64 8, ptr %6) #10
  %12 = load ptr, ptr %3, align 8, !tbaa !13
  %13 = getelementptr inbounds nuw %struct.AVFormatContext, ptr %12, i32 0, i32 4
  %14 = load ptr, ptr %13, align 8, !tbaa !32
  store ptr %14, ptr %6, align 8, !tbaa !33
  call void @llvm.lifetime.start.p0(i64 8, ptr %7) #10
  %15 = load ptr, ptr %6, align 8, !tbaa !33
  %16 = call i64 @avio_rl64(ptr noundef %15)
  %17 = load ptr, ptr %5, align 8, !tbaa !30
  %18 = getelementptr inbounds nuw %struct.ASFContext, ptr %17, i32 0, i32 10
  store i64 %16, ptr %18, align 8, !tbaa !81
  store i64 %16, ptr %7, align 8, !tbaa !47
  call void @llvm.lifetime.start.p0(i64 4, ptr %8) #10
  %19 = load ptr, ptr %5, align 8, !tbaa !30
  %20 = getelementptr inbounds nuw %struct.ASFContext, ptr %19, i32 0, i32 0
  %21 = load i32, ptr %20, align 8, !tbaa !40
  %22 = icmp ne i32 %21, 0
  br i1 %22, label %31, label %23

23:                                               ; preds = %2
  %24 = load ptr, ptr %5, align 8, !tbaa !30
  %25 = getelementptr inbounds nuw %struct.ASFContext, ptr %24, i32 0, i32 0
  store i32 1, ptr %25, align 8, !tbaa !40
  %26 = load ptr, ptr %5, align 8, !tbaa !30
  %27 = getelementptr inbounds nuw %struct.ASFContext, ptr %26, i32 0, i32 12
  %28 = load i64, ptr %27, align 8, !tbaa !41
  %29 = load ptr, ptr %5, align 8, !tbaa !30
  %30 = getelementptr inbounds nuw %struct.ASFContext, ptr %29, i32 0, i32 13
  store i64 %28, ptr %30, align 8, !tbaa !80
  br label %31

31:                                               ; preds = %23, %2
  store i32 0, ptr %8, align 4, !tbaa !42
  br label %32

32:                                               ; preds = %58, %31
  %33 = load i32, ptr %8, align 4, !tbaa !42
  %34 = load ptr, ptr %5, align 8, !tbaa !30
  %35 = getelementptr inbounds nuw %struct.ASFContext, ptr %34, i32 0, i32 19
  %36 = load i32, ptr %35, align 8, !tbaa !52
  %37 = icmp slt i32 %33, %36
  br i1 %37, label %38, label %61

38:                                               ; preds = %32
  %39 = load ptr, ptr %5, align 8, !tbaa !30
  %40 = getelementptr inbounds nuw %struct.ASFContext, ptr %39, i32 0, i32 8
  %41 = load i32, ptr %40, align 4, !tbaa !50
  %42 = and i32 %41, 1
  %43 = icmp ne i32 %42, 0
  br i1 %43, label %57, label %44

44:                                               ; preds = %38
  %45 = load ptr, ptr %5, align 8, !tbaa !30
  %46 = getelementptr inbounds nuw %struct.ASFContext, ptr %45, i32 0, i32 7
  %47 = load i32, ptr %46, align 8, !tbaa !135
  %48 = sext i32 %47 to i64
  %49 = load ptr, ptr %3, align 8, !tbaa !13
  %50 = getelementptr inbounds nuw %struct.AVFormatContext, ptr %49, i32 0, i32 7
  %51 = load ptr, ptr %50, align 8, !tbaa !60
  %52 = load i32, ptr %8, align 4, !tbaa !42
  %53 = sext i32 %52 to i64
  %54 = getelementptr inbounds ptr, ptr %51, i64 %53
  %55 = load ptr, ptr %54, align 8, !tbaa !62
  %56 = getelementptr inbounds nuw %struct.AVStream, ptr %55, i32 0, i32 7
  store i64 %48, ptr %56, align 8, !tbaa !136
  br label %57

57:                                               ; preds = %44, %38
  br label %58

58:                                               ; preds = %57
  %59 = load i32, ptr %8, align 4, !tbaa !42
  %60 = add nsw i32 %59, 1
  store i32 %60, ptr %8, align 4, !tbaa !42
  br label %32, !llvm.loop !137

61:                                               ; preds = %32
  %62 = load ptr, ptr %5, align 8, !tbaa !30
  %63 = getelementptr inbounds nuw %struct.ASFContext, ptr %62, i32 0, i32 31
  store i64 0, ptr %63, align 8, !tbaa !84
  %64 = load ptr, ptr %5, align 8, !tbaa !30
  %65 = getelementptr inbounds nuw %struct.ASFContext, ptr %64, i32 0, i32 28
  store i64 0, ptr %65, align 8, !tbaa !86
  %66 = load ptr, ptr %5, align 8, !tbaa !30
  %67 = getelementptr inbounds nuw %struct.ASFContext, ptr %66, i32 0, i32 33
  store i32 0, ptr %67, align 4, !tbaa !83
  %68 = load ptr, ptr %5, align 8, !tbaa !30
  %69 = getelementptr inbounds nuw %struct.ASFContext, ptr %68, i32 0, i32 32
  store i32 0, ptr %69, align 8, !tbaa !87
  %70 = load ptr, ptr %5, align 8, !tbaa !30
  %71 = getelementptr inbounds nuw %struct.ASFContext, ptr %70, i32 0, i32 24
  store i32 0, ptr %71, align 4, !tbaa !138
  %72 = load ptr, ptr %6, align 8, !tbaa !33
  %73 = call i64 @avio_skip(ptr noundef %72, i64 noundef 16)
  %74 = load ptr, ptr %6, align 8, !tbaa !33
  %75 = call i64 @avio_rl64(ptr noundef %74)
  store i64 %75, ptr %7, align 8, !tbaa !47
  %76 = load i64, ptr %7, align 8, !tbaa !47
  %77 = load ptr, ptr %5, align 8, !tbaa !30
  %78 = getelementptr inbounds nuw %struct.ASFContext, ptr %77, i32 0, i32 4
  %79 = load i64, ptr %78, align 8, !tbaa !139
  %80 = icmp ne i64 %76, %79
  br i1 %80, label %81, label %87

81:                                               ; preds = %61
  %82 = load ptr, ptr %3, align 8, !tbaa !13
  %83 = load i64, ptr %7, align 8, !tbaa !47
  %84 = load ptr, ptr %5, align 8, !tbaa !30
  %85 = getelementptr inbounds nuw %struct.ASFContext, ptr %84, i32 0, i32 4
  %86 = load i64, ptr %85, align 8, !tbaa !139
  call void (ptr, i32, ptr, ...) @av_log(ptr noundef %82, i32 noundef 24, ptr noundef @.str.50, i64 noundef %83, i64 noundef %86)
  br label %87

87:                                               ; preds = %81, %61
  %88 = load ptr, ptr %6, align 8, !tbaa !33
  %89 = call i64 @avio_skip(ptr noundef %88, i64 noundef 2)
  %90 = load ptr, ptr %6, align 8, !tbaa !33
  %91 = call i64 @avio_tell(ptr noundef %90)
  %92 = load ptr, ptr %5, align 8, !tbaa !30
  %93 = getelementptr inbounds nuw %struct.ASFContext, ptr %92, i32 0, i32 14
  store i64 %91, ptr %93, align 8, !tbaa !51
  %94 = load ptr, ptr %6, align 8, !tbaa !33
  %95 = getelementptr inbounds nuw %struct.AVIOContext, ptr %94, i32 0, i32 20
  %96 = load i32, ptr %95, align 8, !tbaa !48
  %97 = and i32 %96, 1
  %98 = icmp ne i32 %97, 0
  br i1 %98, label %99, label %113

99:                                               ; preds = %87
  %100 = load ptr, ptr %5, align 8, !tbaa !30
  %101 = getelementptr inbounds nuw %struct.ASFContext, ptr %100, i32 0, i32 8
  %102 = load i32, ptr %101, align 4, !tbaa !50
  %103 = and i32 %102, 1
  %104 = icmp ne i32 %103, 0
  br i1 %104, label %113, label %105

105:                                              ; preds = %99
  %106 = load ptr, ptr %6, align 8, !tbaa !33
  %107 = load ptr, ptr %5, align 8, !tbaa !30
  %108 = getelementptr inbounds nuw %struct.ASFContext, ptr %107, i32 0, i32 12
  %109 = load i64, ptr %108, align 8, !tbaa !41
  %110 = load ptr, ptr %5, align 8, !tbaa !30
  %111 = getelementptr inbounds nuw %struct.ASFContext, ptr %110, i32 0, i32 10
  %112 = load i64, ptr %111, align 8, !tbaa !81
  call void @align_position(ptr noundef %106, i64 noundef %109, i64 noundef %112)
  br label %113

113:                                              ; preds = %105, %99, %87
  call void @llvm.lifetime.end.p0(i64 4, ptr %8) #10
  call void @llvm.lifetime.end.p0(i64 8, ptr %7) #10
  call void @llvm.lifetime.end.p0(i64 8, ptr %6) #10
  call void @llvm.lifetime.end.p0(i64 8, ptr %5) #10
  ret i32 0
}