; Function Attrs: nounwind uwtable
define internal noundef i32 @asf_read_data(ptr noundef %0, ptr readnone captures(none) %1) #1 {
  %3 = getelementptr inbounds nuw i8, ptr %0, i64 24
  %4 = load ptr, ptr %3, align 8, !tbaa !11
  %5 = getelementptr inbounds nuw i8, ptr %0, i64 32
  %6 = load ptr, ptr %5, align 8, !tbaa !26
  %7 = tail call i64 @avio_rl64(ptr noundef %6) #12
  %8 = getelementptr inbounds nuw i8, ptr %4, i64 64
  store i64 %7, ptr %8, align 8, !tbaa !74
  %9 = load i32, ptr %4, align 8, !tbaa !31
  %.not = icmp eq i32 %9, 0
  br i1 %.not, label %10, label %14

10:                                               ; preds = %2
  store i32 1, ptr %4, align 8, !tbaa !31
  %11 = getelementptr inbounds nuw i8, ptr %4, i64 80
  %12 = load i64, ptr %11, align 8, !tbaa !32
  %13 = getelementptr inbounds nuw i8, ptr %4, i64 88
  store i64 %12, ptr %13, align 8, !tbaa !73
  br label %14

14:                                               ; preds = %10, %2
  %15 = getelementptr inbounds nuw i8, ptr %4, i64 7288
  %16 = load i32, ptr %15, align 8, !tbaa !44
  %17 = icmp sgt i32 %16, 0
  br i1 %17, label %.lr.ph, label %._crit_edge

.lr.ph:                                           ; preds = %14
  %18 = getelementptr inbounds nuw i8, ptr %4, i64 52
  %19 = load i32, ptr %18, align 4, !tbaa !42
  %20 = and i32 %19, 1
  %.not39 = icmp eq i32 %20, 0
  br i1 %.not39, label %.lr.ph.split.us, label %._crit_edge

.lr.ph.split.us:                                  ; preds = %.lr.ph
  %21 = getelementptr inbounds nuw i8, ptr %0, i64 48
  %22 = getelementptr inbounds nuw i8, ptr %4, i64 48
  %23 = load i32, ptr %22, align 8, !tbaa !137
  %24 = sext i32 %23 to i64
  %25 = load ptr, ptr %21, align 8, !tbaa !51
  %wide.trip.count = zext nneg i32 %16 to i64
  br label %26

26:                                               ; preds = %26, %.lr.ph.split.us
  %indvars.iv = phi i64 [ %indvars.iv.next, %26 ], [ 0, %.lr.ph.split.us ]
  %27 = getelementptr inbounds nuw ptr, ptr %25, i64 %indvars.iv
  %28 = load ptr, ptr %27, align 8, !tbaa !53
  %29 = getelementptr inbounds nuw i8, ptr %28, i64 48
  store i64 %24, ptr %29, align 8, !tbaa !138
  %indvars.iv.next = add nuw nsw i64 %indvars.iv, 1
  %exitcond.not = icmp eq i64 %indvars.iv.next, %wide.trip.count
  br i1 %exitcond.not, label %._crit_edge, label %26, !llvm.loop !139

._crit_edge:                                      ; preds = %26, %.lr.ph, %14
  %30 = getelementptr inbounds nuw i8, ptr %4, i64 7352
  %31 = getelementptr inbounds nuw i8, ptr %4, i64 7336
  store i64 0, ptr %31, align 8, !tbaa !84
  %32 = getelementptr inbounds nuw i8, ptr %4, i64 7316
  store i32 0, ptr %32, align 4, !tbaa !80
  tail call void @llvm.memset.p0.i64(ptr noundef nonnull align 8 dereferenceable(16) %30, i8 0, i64 16, i1 false)
  %33 = tail call i64 @avio_skip(ptr noundef %6, i64 noundef 16) #12
  %34 = tail call i64 @avio_rl64(ptr noundef %6) #12
  %35 = getelementptr inbounds nuw i8, ptr %4, i64 24
  %36 = load i64, ptr %35, align 8, !tbaa !140
  %.not36 = icmp eq i64 %34, %36
  br i1 %.not36, label %38, label %37

37:                                               ; preds = %._crit_edge
  tail call void (ptr, i32, ptr, ...) @av_log(ptr noundef nonnull %0, i32 noundef 24, ptr noundef nonnull @.str.50, i64 noundef %34, i64 noundef %36) #12
  br label %38

38:                                               ; preds = %37, %._crit_edge
  %39 = tail call i64 @avio_skip(ptr noundef %6, i64 noundef 2) #12
  %40 = tail call i64 @avio_seek(ptr noundef %6, i64 noundef 0, i32 noundef 1) #12
  %41 = getelementptr inbounds nuw i8, ptr %4, i64 96
  store i64 %40, ptr %41, align 8, !tbaa !43
  %42 = getelementptr inbounds nuw i8, ptr %6, i64 144
  %43 = load i32, ptr %42, align 8, !tbaa !40
  %44 = and i32 %43, 1
  %.not37 = icmp eq i32 %44, 0
  br i1 %.not37, label %align_position.exit, label %45

45:                                               ; preds = %38
  %46 = getelementptr inbounds nuw i8, ptr %4, i64 52
  %47 = load i32, ptr %46, align 4, !tbaa !42
  %48 = and i32 %47, 1
  %.not38 = icmp eq i32 %48, 0
  br i1 %.not38, label %49, label %align_position.exit

49:                                               ; preds = %45
  %50 = getelementptr inbounds nuw i8, ptr %4, i64 80
  %51 = load i64, ptr %50, align 8, !tbaa !32
  %52 = load i64, ptr %8, align 8, !tbaa !74
  %53 = sub nsw i64 9223372036854775807, %51
  %54 = icmp ult i64 %52, %53
  br i1 %54, label %55, label %align_position.exit

55:                                               ; preds = %49
  %56 = tail call i64 @avio_seek(ptr noundef nonnull %6, i64 noundef 0, i32 noundef 1) #12
  %57 = add i64 %52, %51
  %.not.i = icmp eq i64 %56, %57
  br i1 %.not.i, label %align_position.exit, label %58

58:                                               ; preds = %55
  %59 = tail call i64 @avio_seek(ptr noundef nonnull %6, i64 noundef %57, i32 noundef 0) #12
  br label %align_position.exit

align_position.exit:                              ; preds = %58, %55, %49, %45, %38
  ret i32 0
}